; Function Attrs: mustprogress nounwind uwtable
define void @_ZN3fmt3v1119format_system_errorERNS0_6detail6bufferIcEEiPKc(ptr noundef nonnull align 8 dereferenceable(32) %0, i32 noundef %1, ptr noundef %2) local_unnamed_addr #3 personality ptr @__gxx_personality_v0 {
  %4 = alloca %"class.std::system_error", align 8
  %5 = tail call noundef nonnull align 8 dereferenceable(8) ptr @_ZNSt3_V216generic_categoryEv() #36
  call void @llvm.lifetime.start.p0(i64 32, ptr nonnull %4) #32
  invoke void @_ZNSt12system_errorC2ESt10error_codePKc(ptr noundef nonnull align 8 dereferenceable(32) %4, i32 %1, ptr nonnull %5, ptr noundef %2)
          to label %6 unwind label %13

6:                                                ; preds = %3
  %7 = call noundef ptr @_ZNKSt13runtime_error4whatEv(ptr noundef nonnull align 8 dereferenceable(16) %4) #32
  %.not.i = icmp eq ptr %7, null
  br i1 %.not.i, label %12, label %8

8:                                                ; preds = %6
  %9 = call i64 @strlen(ptr noundef nonnull dereferenceable(1) %7) #37
  %10 = getelementptr inbounds nuw i8, ptr %7, i64 %9
  %11 = invoke ptr @_ZN3fmt3v116detail13copy_noinlineIcPKcNS0_14basic_appenderIcEEEET1_T0_S8_S7_(ptr noundef nonnull %7, ptr noundef nonnull %10, ptr nonnull %0)
          to label %_ZN3fmt3v116detail5writeIcNS0_14basic_appenderIcEEEET0_S5_PKT_.exit unwind label %15

12:                                               ; preds = %6
  invoke void @_ZN3fmt3v1112report_errorEPKc(ptr noundef nonnull @.str.49) #35
          to label %.noexc8 unwind label %15

.noexc8:                                          ; preds = %12
  unreachable

_ZN3fmt3v116detail5writeIcNS0_14basic_appenderIcEEEET0_S5_PKT_.exit: ; preds = %8
  call void @_ZNSt12system_errorD1Ev(ptr noundef nonnull align 8 dereferenceable(32) %4) #32
  call void @llvm.lifetime.end.p0(i64 32, ptr nonnull %4) #32
  br label %21

13:                                               ; preds = %3
  %14 = landingpad { ptr, i32 }
          catch ptr null
  br label %17

15:                                               ; preds = %12, %8
  %16 = landingpad { ptr, i32 }
          catch ptr null
  call void @_ZNSt12system_errorD1Ev(ptr noundef nonnull align 8 dereferenceable(32) %4) #32
  br label %17

17:                                               ; preds = %15, %13
  %.pn = phi { ptr, i32 } [ %16, %15 ], [ %14, %13 ]
  %.0 = extractvalue { ptr, i32 } %.pn, 0
  call void @llvm.lifetime.end.p0(i64 32, ptr nonnull %4) #32
  %18 = call ptr @__cxa_begin_catch(ptr %.0) #32
  invoke void @__cxa_end_catch()
          to label %19 unwind label %22

19:                                               ; preds = %17
  %20 = call i64 @strlen(ptr noundef nonnull dereferenceable(1) %2) #37
  call void @_ZN3fmt3v116detail17format_error_codeERNS1_6bufferIcEEiNS0_17basic_string_viewIcEE(ptr noundef nonnull align 8 dereferenceable(32) %0, i32 noundef %1, ptr nonnull %2, i64 %20) #32
  br label %21

21:                                               ; preds = %19, %_ZN3fmt3v116detail5writeIcNS0_14basic_appenderIcEEEET0_S5_PKT_.exit
  ret void

22:                                               ; preds = %17
  %23 = landingpad { ptr, i32 }
          catch ptr null
  %24 = extractvalue { ptr, i32 } %23, 0
  call void @__clang_call_terminate(ptr %24) #31
  unreachable
}